target datalayout = "e-m:e-p270:32:32-p271:32:32-p272:64:64-i64:64-i128:128-f80:128-n8:16:32:64-S128"
target triple = "x86_64-pc-linux-gnu"

%struct.archive_entry_linkresolver = type { ptr, ptr, i64, i64, i32 }

; Function Attrs: nounwind uwtable
define dso_local void @archive_entry_linkresolver_set_strategy(ptr noundef %0, i32 noundef %1) #0 {
  %3 = alloca ptr, align 8
  %4 = alloca i32, align 4
  %5 = alloca i32, align 4
  store ptr %0, ptr %3, align 8, !tbaa !4
  store i32 %1, ptr %4, align 4, !tbaa !16
  call void @llvm.lifetime.start.p0(i64 4, ptr %5) #5
  %6 = load i32, ptr %4, align 4, !tbaa !16
  %7 = and i32 %6, 16711680
  store i32 %7, ptr %5, align 4, !tbaa !16
  %8 = load i32, ptr %5, align 4, !tbaa !16
  switch i32 %8, label %27 [
    i32 917504, label %9
    i32 458752, label %9
    i32 327680, label %9
    i32 65536, label %12
    i32 524288, label %21
    i32 262144, label %24
    i32 131072, label %24
    i32 196608, label %24
    i32 655360, label %24
  ]

9:                                                ; preds = %2, %2, %2
  %10 = load ptr, ptr %3, align 8, !tbaa !4
  %11 = getelementptr inbounds nuw %struct.archive_entry_linkresolver, ptr %10, i32 0, i32 4
  store i32 2, ptr %11, align 8, !tbaa !17
  br label %30

12:                                               ; preds = %2
  %13 = load i32, ptr %4, align 4, !tbaa !16
  switch i32 %13, label %17 [
    i32 65540, label %14
    i32 65541, label %14
  ]

14:                                               ; preds = %12, %12
  %15 = load ptr, ptr %3, align 8, !tbaa !4
  %16 = getelementptr inbounds nuw %struct.archive_entry_linkresolver, ptr %15, i32 0, i32 4
  store i32 3, ptr %16, align 8, !tbaa !17
  br label %20

17:                                               ; preds = %12
  %18 = load ptr, ptr %3, align 8, !tbaa !4
  %19 = getelementptr inbounds nuw %struct.archive_entry_linkresolver, ptr %18, i32 0, i32 4
  store i32 2, ptr %19, align 8, !tbaa !17
  br label %20

20:                                               ; preds = %17, %14
  br label %30

21:                                               ; preds = %2
  %22 = load ptr, ptr %3, align 8, !tbaa !4
  %23 = getelementptr inbounds nuw %struct.archive_entry_linkresolver, ptr %22, i32 0, i32 4
  store i32 1, ptr %23, align 8, !tbaa !17
  br label %30

24:                                               ; preds = %2, %2, %2, %2
  %25 = load ptr, ptr %3, align 8, !tbaa !4
  %26 = getelementptr inbounds nuw %struct.archive_entry_linkresolver, ptr %25, i32 0, i32 4
  store i32 0, ptr %26, align 8, !tbaa !17
  br label %30

27:                                               ; preds = %2
  %28 = load ptr, ptr %3, align 8, !tbaa !4
  %29 = getelementptr inbounds nuw %struct.archive_entry_linkresolver, ptr %28, i32 0, i32 4
  store i32 2, ptr %29, align 8, !tbaa !17
  br label %30

30:                                               ; preds = %27, %24, %21, %20, %9
  call void @llvm.lifetime.end.p0(i64 4, ptr %5) #5
  ret void
}