; Function Attrs: mustprogress nofree norecurse nosync nounwind willreturn memory(argmem: write) uwtable
define dso_local void @archive_entry_linkresolver_set_strategy(ptr noundef writeonly captures(none) initializes((32, 36)) %0, i32 noundef %1) local_unnamed_addr #3 {
  %3 = and i32 %1, 16711680
  %4 = add nsw i32 %3, -65536
  %5 = lshr exact i32 %4, 16
  %trunc = trunc nuw i32 %5 to i16
  switch i16 %trunc, label %17 [
    i16 13, label %6
    i16 6, label %6
    i16 4, label %6
    i16 0, label %8
    i16 7, label %13
    i16 3, label %15
    i16 1, label %15
    i16 2, label %15
    i16 9, label %15
  ]

6:                                                ; preds = %2, %2, %2
  %7 = getelementptr inbounds nuw i8, ptr %0, i64 32
  store i32 2, ptr %7, align 8, !tbaa !14
  br label %19

8:                                                ; preds = %2
  %9 = and i32 %1, -2
  %switch = icmp eq i32 %9, 65540
  %10 = getelementptr inbounds nuw i8, ptr %0, i64 32
  br i1 %switch, label %11, label %12

11:                                               ; preds = %8
  store i32 3, ptr %10, align 8, !tbaa !14
  br label %19

12:                                               ; preds = %8
  store i32 2, ptr %10, align 8, !tbaa !14
  br label %19

13:                                               ; preds = %2
  %14 = getelementptr inbounds nuw i8, ptr %0, i64 32
  store i32 1, ptr %14, align 8, !tbaa !14
  br label %19

15:                                               ; preds = %2, %2, %2, %2
  %16 = getelementptr inbounds nuw i8, ptr %0, i64 32
  store i32 0, ptr %16, align 8, !tbaa !14
  br label %19

17:                                               ; preds = %2
  %18 = getelementptr inbounds nuw i8, ptr %0, i64 32
  store i32 2, ptr %18, align 8, !tbaa !14
  br label %19

19:                                               ; preds = %11, %12, %17, %15, %13, %6
  ret void
}